; Function Attrs: nounwind uwtable
define ptr @l_Lean_forEachModuleInDir___rarg(ptr noundef %0, ptr noundef %1, ptr noundef %2, ptr noundef %3) #0 {
  %5 = getelementptr inbounds nuw i8, ptr %0, i64 16
  %6 = load ptr, ptr %5, align 8, !tbaa !4
  %7 = ptrtoint ptr %6 to i64
  %8 = and i64 %7, 1
  %.not = icmp eq i64 %8, 0
  br i1 %.not, label %9, label %lean_inc.exit21

9:                                                ; preds = %4
  %.val.i = load i32, ptr %6, align 4, !tbaa !10
  %10 = icmp sgt i32 %.val.i, 0
  br i1 %10, label %11, label %13, !prof !13

11:                                               ; preds = %9
  %12 = add nuw i32 %.val.i, 1
  store i32 %12, ptr %6, align 4, !tbaa !10
  br label %lean_inc.exit21

13:                                               ; preds = %9
  %.not.i = icmp eq i32 %.val.i, 0
  br i1 %.not.i, label %lean_inc.exit21, label %14

14:                                               ; preds = %13
  tail call void @lean_inc_ref_cold(ptr noundef nonnull %6) #4
  br label %lean_inc.exit21

lean_inc.exit21:                                  ; preds = %14, %13, %11, %4
  tail call void @lean_inc_heartbeat() #4
  %15 = tail call noalias ptr @mi_malloc_small(i64 noundef 32) #4
  %16 = icmp eq ptr %15, null
  br i1 %16, label %17, label %lean_alloc_closure.exit

17:                                               ; preds = %lean_inc.exit21
  tail call void @lean_internal_panic_out_of_memory() #5
  unreachable

lean_alloc_closure.exit:                          ; preds = %lean_inc.exit21
  %18 = getelementptr inbounds nuw i8, ptr %15, i64 4
  store i32 1, ptr %15, align 4, !tbaa !10
  store i32 -184549344, ptr %18, align 4
  %19 = getelementptr inbounds nuw i8, ptr %15, i64 8
  store ptr @l_System_FilePath_readDir___boxed, ptr %19, align 8, !tbaa !4
  %20 = getelementptr inbounds nuw i8, ptr %15, i64 16
  store i16 2, ptr %20, align 8, !tbaa !14
  %21 = getelementptr inbounds nuw i8, ptr %15, i64 18
  store i16 1, ptr %21, align 2, !tbaa !14
  %22 = getelementptr inbounds nuw i8, ptr %15, i64 24
  store ptr %2, ptr %22, align 8, !tbaa !4
  %23 = ptrtoint ptr %1 to i64
  %24 = and i64 %23, 1
  %.not29 = icmp eq i64 %24, 0
  br i1 %.not29, label %25, label %lean_inc.exit20

25:                                               ; preds = %lean_alloc_closure.exit
  %.val.i22 = load i32, ptr %1, align 4, !tbaa !10
  %26 = icmp sgt i32 %.val.i22, 0
  br i1 %26, label %27, label %29, !prof !13

27:                                               ; preds = %25
  %28 = add nuw i32 %.val.i22, 1
  store i32 %28, ptr %1, align 4, !tbaa !10
  br label %lean_inc.exit20

29:                                               ; preds = %25
  %.not.i23 = icmp eq i32 %.val.i22, 0
  br i1 %.not.i23, label %lean_inc.exit20, label %30

30:                                               ; preds = %29
  tail call void @lean_inc_ref_cold(ptr noundef nonnull %1) #4
  br label %lean_inc.exit20

lean_inc.exit20:                                  ; preds = %30, %29, %27, %lean_alloc_closure.exit
  %31 = tail call ptr @lean_apply_2(ptr noundef %1, ptr noundef nonnull inttoptr (i64 1 to ptr), ptr noundef nonnull %15) #4
  br i1 %.not, label %32, label %lean_inc.exit

32:                                               ; preds = %lean_inc.exit20
  %.val.i25 = load i32, ptr %6, align 4, !tbaa !10
  %33 = icmp sgt i32 %.val.i25, 0
  br i1 %33, label %34, label %36, !prof !13

34:                                               ; preds = %32
  %35 = add nuw i32 %.val.i25, 1
  store i32 %35, ptr %6, align 4, !tbaa !10
  br label %lean_inc.exit

36:                                               ; preds = %32
  %.not.i26 = icmp eq i32 %.val.i25, 0
  br i1 %.not.i26, label %lean_inc.exit, label %37

37:                                               ; preds = %36
  tail call void @lean_inc_ref_cold(ptr noundef nonnull %6) #4
  br label %lean_inc.exit

lean_inc.exit:                                    ; preds = %37, %36, %34, %lean_inc.exit20
  tail call void @lean_inc_heartbeat() #4
  %38 = tail call noalias ptr @mi_malloc_small(i64 noundef 56) #4
  %39 = icmp eq ptr %38, null
  br i1 %39, label %40, label %lean_alloc_closure.exit28

40:                                               ; preds = %lean_inc.exit
  tail call void @lean_internal_panic_out_of_memory() #5
  unreachable

lean_alloc_closure.exit28:                        ; preds = %lean_inc.exit
  %41 = getelementptr inbounds nuw i8, ptr %38, i64 4
  store i32 1, ptr %38, align 4, !tbaa !10
  store i32 -184549320, ptr %41, align 4
  %42 = getelementptr inbounds nuw i8, ptr %38, i64 8
  store ptr @l_Lean_forEachModuleInDir___rarg___lambda__2, ptr %42, align 8, !tbaa !4
  %43 = getelementptr inbounds nuw i8, ptr %38, i64 16
  store i16 5, ptr %43, align 8, !tbaa !14
  %44 = getelementptr inbounds nuw i8, ptr %38, i64 18
  store i16 4, ptr %44, align 2, !tbaa !14
  %45 = getelementptr inbounds nuw i8, ptr %38, i64 24
  store ptr %0, ptr %45, align 8, !tbaa !4
  %46 = getelementptr inbounds nuw i8, ptr %38, i64 32
  store ptr %1, ptr %46, align 8, !tbaa !4
  %47 = getelementptr inbounds nuw i8, ptr %38, i64 40
  store ptr %3, ptr %47, align 8, !tbaa !4
  %48 = getelementptr inbounds nuw i8, ptr %38, i64 48
  store ptr %6, ptr %48, align 8, !tbaa !4
  %49 = tail call ptr @lean_apply_4(ptr noundef %6, ptr noundef nonnull inttoptr (i64 1 to ptr), ptr noundef nonnull inttoptr (i64 1 to ptr), ptr noundef %31, ptr noundef nonnull %38) #4
  ret ptr %49
}